target datalayout = "e-m:e-p270:32:32-p271:32:32-p272:64:64-i64:64-i128:128-f80:128-n8:16:32:64-S128"
target triple = "x86_64-pc-linux-gnu"

%struct._packet_info = type { ptr, ptr, i32, i32, %struct.nstime_t, %struct.nstime_t, %struct.nstime_t, i8, ptr, ptr, ptr, ptr, %struct._address, %struct._address, %struct._address, %struct._address, %struct._address, %struct._address, i32, ptr, i8, [3 x i8], %struct.anon, i32, i32, i32, i32, ptr, i8, ptr, ptr, i16, i16, i32, i32, i16, i32, i32, ptr, ptr, ptr, i8, i8, i16, i16, i16, i32, i16, i16, ptr, ptr, ptr, ptr, ptr, i32, i32 }
%struct.nstime_t = type { i64, i32 }
%struct._address = type { i32, i32, ptr, ptr }
%struct.anon = type { i8, [3 x i8] }

@hf_dsmcc_un_sess_session_id_device_id = internal global i32 0, align 4
@hf_dsmcc_un_sess_session_id_session_number = internal global i32 0, align 4
@ett_dsmcc_heading = internal global i32 0, align 4
@.str.563 = private unnamed_addr constant [11 x i8] c"Session ID\00", align 1
@.str.564 = private unnamed_addr constant [17 x i8] c"Session ID: 0x%s\00", align 1

; Function Attrs: null_pointer_is_valid sspstrong uwtable
define internal i32 @dissect_dsmcc_un_session_id(ptr noundef %0, i32 noundef %1, ptr noundef %2, ptr noundef %3) #0 {
  %5 = alloca ptr, align 8
  %6 = alloca i32, align 4
  %7 = alloca ptr, align 8
  %8 = alloca ptr, align 8
  %9 = alloca ptr, align 8
  %10 = alloca i32, align 4
  store ptr %0, ptr %5, align 8
  store i32 %1, ptr %6, align 4
  store ptr %2, ptr %7, align 8
  store ptr %3, ptr %8, align 8
  call void @llvm.lifetime.start.p0(i64 8, ptr %9) #4
  call void @llvm.lifetime.start.p0(i64 4, ptr %10) #4
  %11 = load i32, ptr %6, align 4
  store i32 %11, ptr %10, align 4
  %12 = load ptr, ptr %8, align 8
  %13 = load ptr, ptr %5, align 8
  %14 = load i32, ptr %6, align 4
  %15 = load i32, ptr @ett_dsmcc_heading, align 4
  %16 = call ptr @proto_tree_add_subtree(ptr noundef %12, ptr noundef %13, i32 noundef %14, i32 noundef 10, i32 noundef %15, ptr noundef null, ptr noundef @.str.563)
  store ptr %16, ptr %9, align 8
  %17 = load ptr, ptr %9, align 8
  %18 = load ptr, ptr %7, align 8
  %19 = getelementptr inbounds nuw %struct._packet_info, ptr %18, i32 0, i32 51
  %20 = load ptr, ptr %19, align 8
  %21 = load ptr, ptr %5, align 8
  %22 = load i32, ptr %6, align 4
  %23 = call ptr @tvb_bytes_to_str(ptr noundef %20, ptr noundef %21, i32 noundef %22, i32 noundef 10)
  call void (ptr, ptr, ...) @proto_item_set_text(ptr noundef %17, ptr noundef @.str.564, ptr noundef %23)
  %24 = load ptr, ptr %9, align 8
  %25 = load i32, ptr @hf_dsmcc_un_sess_session_id_device_id, align 4
  %26 = load ptr, ptr %5, align 8
  %27 = load i32, ptr %6, align 4
  %28 = call ptr @proto_tree_add_item(ptr noundef %24, i32 noundef %25, ptr noundef %26, i32 noundef %27, i32 noundef 6, i32 noundef 0)
  %29 = load i32, ptr %6, align 4
  %30 = add i32 %29, 6
  store i32 %30, ptr %6, align 4
  %31 = load ptr, ptr %9, align 8
  %32 = load i32, ptr @hf_dsmcc_un_sess_session_id_session_number, align 4
  %33 = load ptr, ptr %5, align 8
  %34 = load i32, ptr %6, align 4
  %35 = call ptr @proto_tree_add_item(ptr noundef %31, i32 noundef %32, ptr noundef %33, i32 noundef %34, i32 noundef 4, i32 noundef 0)
  %36 = load i32, ptr %6, align 4
  %37 = add i32 %36, 4
  store i32 %37, ptr %6, align 4
  %38 = load i32, ptr %6, align 4
  %39 = load i32, ptr %10, align 4
  %40 = sub i32 %38, %39
  call void @llvm.lifetime.end.p0(i64 4, ptr %10) #4
  call void @llvm.lifetime.end.p0(i64 8, ptr %9) #4
  ret i32 %40
}