; Function Attrs: null_pointer_is_valid sspstrong uwtable
define internal fastcc void @dissect_dsmcc_un_session_id(ptr noundef %0, i32 noundef %1, ptr noundef readonly captures(none) %2, ptr noundef %3) unnamed_addr #0 {
  %5 = load i32, ptr @ett_dsmcc_heading, align 4
  %6 = tail call ptr @proto_tree_add_subtree(ptr noundef %3, ptr noundef %0, i32 noundef %1, i32 noundef 10, i32 noundef %5, ptr noundef null, ptr noundef nonnull @.str.563)
  %7 = getelementptr inbounds nuw i8, ptr %2, i64 408
  %8 = load ptr, ptr %7, align 8
  %9 = tail call ptr @tvb_bytes_to_str(ptr noundef %8, ptr noundef %0, i32 noundef %1, i32 noundef 10)
  tail call void (ptr, ptr, ...) @proto_item_set_text(ptr noundef %6, ptr noundef nonnull @.str.564, ptr noundef %9)
  %10 = load i32, ptr @hf_dsmcc_un_sess_session_id_device_id, align 4
  %11 = tail call ptr @proto_tree_add_item(ptr noundef %6, i32 noundef %10, ptr noundef %0, i32 noundef %1, i32 noundef 6, i32 noundef 0)
  %12 = add i32 %1, 6
  %13 = load i32, ptr @hf_dsmcc_un_sess_session_id_session_number, align 4
  %14 = tail call ptr @proto_tree_add_item(ptr noundef %6, i32 noundef %13, ptr noundef %0, i32 noundef %12, i32 noundef 4, i32 noundef 0)
  ret void
}